; Function Attrs: mustprogress nofree norecurse nosync nounwind willreturn memory(readwrite, inaccessiblemem: none) uwtable
define range(i32 -1, 1) i32 @pqGetnchar(ptr noundef writeonly captures(none) %0, i64 noundef %1, ptr noundef captures(none) %2) local_unnamed_addr #4 {
  %4 = getelementptr inbounds nuw i8, ptr %2, i64 1020
  %5 = load i32, ptr %4, align 4
  %6 = getelementptr inbounds nuw i8, ptr %2, i64 1016
  %7 = load i32, ptr %6, align 8
  %8 = sub i32 %5, %7
  %9 = sext i32 %8 to i64
  %10 = icmp ugt i64 %1, %9
  br i1 %10, label %19, label %11

11:                                               ; preds = %3
  %12 = getelementptr inbounds nuw i8, ptr %2, i64 1000
  %13 = load ptr, ptr %12, align 8
  %14 = sext i32 %7 to i64
  %15 = getelementptr inbounds i8, ptr %13, i64 %14
  tail call void @llvm.memcpy.p0.p0.i64(ptr align 1 %0, ptr align 1 %15, i64 %1, i1 false)
  %16 = load i32, ptr %6, align 8
  %17 = trunc i64 %1 to i32
  %18 = add i32 %16, %17
  store i32 %18, ptr %6, align 8
  br label %19

19:                                               ; preds = %3, %11
  %.0 = phi i32 [ 0, %11 ], [ -1, %3 ]
  ret i32 %.0
}